target datalayout = "e-m:e-p270:32:32-p271:32:32-p272:64:64-i64:64-i128:128-f80:128-n8:16:32:64-S128"
target triple = "x86_64-pc-linux-gnu"

%class.DependencyContext = type { ptr, ptr }
%class.nmethodBucket = type { ptr, ptr, ptr }
%"struct.Atomic::LoadImpl.8" = type { i8 }
%"struct.Atomic::CmpxchgImpl" = type { i8 }
%class.PerfData = type { ptr, ptr, i32, i32, i8, i32, ptr, ptr }
%"struct.Atomic::StoreImpl" = type { i8 }
%"struct.Atomic::PlatformLoad.7" = type { i8 }
%"struct.Atomic::PlatformCmpxchg" = type { i8 }
%"struct.Atomic::PlatformStore" = type { i8 }

@_ZN17DependencyContext35_perf_total_buckets_allocated_countE = hidden global ptr null, align 8
@UsePerfData = external global i8, align 1

; Function Attrs: mustprogress nounwind uwtable
define linkonce_odr hidden void @_ZNK6Atomic13PlatformStoreILm8EEclIP13nmethodBucketEEvPVT_S5_(ptr noundef nonnull align 1 dereferenceable(1) %0, ptr noundef %1, ptr noundef %2) #1 comdat align 2 {
  %4 = alloca ptr, align 8
  %5 = alloca ptr, align 8
  %6 = alloca ptr, align 8
  store ptr %0, ptr %4, align 8
  store ptr %1, ptr %5, align 8
  store ptr %2, ptr %6, align 8
  %7 = load ptr, ptr %6, align 8
  %8 = load ptr, ptr %5, align 8
  store volatile ptr %7, ptr %8, align 8
  ret void
}

; Function Attrs: mustprogress nounwind uwtable
define linkonce_odr hidden noundef ptr @_ZNK6Atomic15PlatformCmpxchgILm8EEclIP13nmethodBucketEET_PVS5_S5_S5_19atomic_memory_order(ptr noundef nonnull align 1 dereferenceable(1) %0, ptr noundef %1, ptr noundef %2, ptr noundef %3, i32 noundef %4) #1 comdat align 2 {
  %6 = alloca ptr, align 8
  %7 = alloca ptr, align 8
  %8 = alloca ptr, align 8
  %9 = alloca ptr, align 8
  %10 = alloca i32, align 4
  store ptr %0, ptr %6, align 8
  store ptr %1, ptr %7, align 8
  store ptr %2, ptr %8, align 8
  store ptr %3, ptr %9, align 8
  store i32 %4, ptr %10, align 4
  %11 = load ptr, ptr %9, align 8
  %12 = load ptr, ptr %8, align 8
  %13 = load ptr, ptr %7, align 8
  %14 = call ptr asm sideeffect "lock cmpxchgq $1,($3)", "={ax},r,{ax},r,~{cc},~{memory},~{dirflag},~{fpsr},~{flags}"(ptr %11, ptr %12, ptr %13) #7, !srcloc !20
  store ptr %14, ptr %9, align 8
  %15 = load ptr, ptr %9, align 8
  ret ptr %15
}

; Function Attrs: mustprogress nounwind uwtable
define linkonce_odr hidden void @_ZNK6Atomic9StoreImplIP13nmethodBucketS2_NS_13PlatformStoreILm8EEEvEclEPVS2_S2_(ptr noundef nonnull align 1 dereferenceable(1) %0, ptr noundef %1, ptr noundef %2) #1 comdat align 2 {
  %4 = alloca ptr, align 8
  %5 = alloca ptr, align 8
  %6 = alloca ptr, align 8
  %7 = alloca ptr, align 8
  %8 = alloca %"struct.Atomic::PlatformStore", align 1
  store ptr %0, ptr %4, align 8
  store ptr %1, ptr %5, align 8
  store ptr %2, ptr %6, align 8
  %9 = load ptr, ptr %6, align 8
  store ptr %9, ptr %7, align 8
  %10 = load ptr, ptr %5, align 8
  %11 = load ptr, ptr %7, align 8
  call void @_ZNK6Atomic13PlatformStoreILm8EEclIP13nmethodBucketEEvPVT_S5_(ptr noundef nonnull align 1 dereferenceable(1) %8, ptr noundef %10, ptr noundef %11)
  ret void
}

; Function Attrs: mustprogress nounwind uwtable
define linkonce_odr hidden noundef ptr @_ZNK6Atomic12PlatformLoadILm8EEclIP13nmethodBucketEET_PVKS5_(ptr noundef nonnull align 1 dereferenceable(1) %0, ptr noundef %1) #1 comdat align 2 {
  %3 = alloca ptr, align 8
  %4 = alloca ptr, align 8
  store ptr %0, ptr %3, align 8
  store ptr %1, ptr %4, align 8
  %5 = load ptr, ptr %4, align 8
  %6 = load volatile ptr, ptr %5, align 8
  ret ptr %6
}

; Function Attrs: mustprogress nounwind uwtable
define linkonce_odr hidden noundef ptr @_ZNK6Atomic11CmpxchgImplIP13nmethodBucketS2_S2_vEclEPVS2_S2_S2_19atomic_memory_order(ptr noundef nonnull align 1 dereferenceable(1) %0, ptr noundef %1, ptr noundef %2, ptr noundef %3, i32 noundef %4) #1 comdat align 2 {
  %6 = alloca ptr, align 8
  %7 = alloca ptr, align 8
  %8 = alloca ptr, align 8
  %9 = alloca ptr, align 8
  %10 = alloca i32, align 4
  %11 = alloca ptr, align 8
  %12 = alloca ptr, align 8
  %13 = alloca %"struct.Atomic::PlatformCmpxchg", align 1
  store ptr %0, ptr %6, align 8
  store ptr %1, ptr %7, align 8
  store ptr %2, ptr %8, align 8
  store ptr %3, ptr %9, align 8
  store i32 %4, ptr %10, align 4
  %14 = load ptr, ptr %9, align 8
  store ptr %14, ptr %11, align 8
  %15 = load ptr, ptr %8, align 8
  store ptr %15, ptr %12, align 8
  %16 = load ptr, ptr %7, align 8
  %17 = load ptr, ptr %12, align 8
  %18 = load ptr, ptr %11, align 8
  %19 = load i32, ptr %10, align 4
  %20 = call noundef ptr @_ZNK6Atomic15PlatformCmpxchgILm8EEclIP13nmethodBucketEET_PVS5_S5_S5_19atomic_memory_order(ptr noundef nonnull align 1 dereferenceable(1) %13, ptr noundef %16, ptr noundef %17, ptr noundef %18, i32 noundef %19)
  ret ptr %20
}

; Function Attrs: mustprogress nounwind uwtable
define linkonce_odr hidden void @_ZN6Atomic5storeIP13nmethodBucketS2_EEvPVT_T0_(ptr noundef %0, ptr noundef %1) #1 comdat align 2 {
  %3 = alloca ptr, align 8
  %4 = alloca ptr, align 8
  %5 = alloca %"struct.Atomic::StoreImpl", align 1
  store ptr %0, ptr %3, align 8
  store ptr %1, ptr %4, align 8
  %6 = load ptr, ptr %3, align 8
  %7 = load ptr, ptr %4, align 8
  call void @_ZNK6Atomic9StoreImplIP13nmethodBucketS2_NS_13PlatformStoreILm8EEEvEclEPVS2_S2_(ptr noundef nonnull align 1 dereferenceable(1) %5, ptr noundef %6, ptr noundef %7)
  ret void
}

; Function Attrs: mustprogress nounwind uwtable
define linkonce_odr hidden noundef ptr @_ZNK6Atomic8LoadImplIP13nmethodBucketNS_12PlatformLoadILm8EEEvEclEPVKS2_(ptr noundef nonnull align 1 dereferenceable(1) %0, ptr noundef %1) #1 comdat align 2 {
  %3 = alloca ptr, align 8
  %4 = alloca ptr, align 8
  %5 = alloca %"struct.Atomic::PlatformLoad.7", align 1
  store ptr %0, ptr %3, align 8
  store ptr %1, ptr %4, align 8
  %6 = load ptr, ptr %4, align 8
  %7 = call noundef ptr @_ZNK6Atomic12PlatformLoadILm8EEclIP13nmethodBucketEET_PVKS5_(ptr noundef nonnull align 1 dereferenceable(1) %5, ptr noundef %6)
  ret ptr %7
}

; Function Attrs: mustprogress nounwind uwtable
define linkonce_odr hidden void @_ZN15PerfLongVariant3incEv(ptr noundef nonnull align 8 dereferenceable(56) %0) #1 comdat align 2 {
  %2 = alloca ptr, align 8
  store ptr %0, ptr %2, align 8
  %3 = load ptr, ptr %2, align 8
  %4 = getelementptr inbounds %class.PerfData, ptr %3, i32 0, i32 7
  %5 = load ptr, ptr %4, align 8
  %6 = load i64, ptr %5, align 8
  %7 = add nsw i64 %6, 1
  store i64 %7, ptr %5, align 8
  ret void
}

; Function Attrs: mustprogress nounwind uwtable
define linkonce_odr hidden noundef ptr @_ZN6Atomic7cmpxchgIP13nmethodBucketS2_S2_EET_PVS3_T0_T1_19atomic_memory_order(ptr noundef %0, ptr noundef %1, ptr noundef %2, i32 noundef %3) #1 comdat align 2 {
  %5 = alloca ptr, align 8
  %6 = alloca ptr, align 8
  %7 = alloca ptr, align 8
  %8 = alloca i32, align 4
  %9 = alloca %"struct.Atomic::CmpxchgImpl", align 1
  store ptr %0, ptr %5, align 8
  store ptr %1, ptr %6, align 8
  store ptr %2, ptr %7, align 8
  store i32 %3, ptr %8, align 4
  %10 = load ptr, ptr %5, align 8
  %11 = load ptr, ptr %6, align 8
  %12 = load ptr, ptr %7, align 8
  %13 = load i32, ptr %8, align 4
  %14 = call noundef ptr @_ZNK6Atomic11CmpxchgImplIP13nmethodBucketS2_S2_vEclEPVS2_S2_S2_19atomic_memory_order(ptr noundef nonnull align 1 dereferenceable(1) %9, ptr noundef %10, ptr noundef %11, ptr noundef %12, i32 noundef %13)
  ret ptr %14
}

; Function Attrs: mustprogress nounwind uwtable
define hidden void @_ZN13nmethodBucket8set_nextEPS_(ptr noundef nonnull align 8 dereferenceable(24) %0, ptr noundef %1) #1 align 2 {
  %3 = alloca ptr, align 8
  %4 = alloca ptr, align 8
  store ptr %0, ptr %3, align 8
  store ptr %1, ptr %4, align 8
  %5 = load ptr, ptr %3, align 8
  %6 = getelementptr inbounds %class.nmethodBucket, ptr %5, i32 0, i32 1
  %7 = load ptr, ptr %4, align 8
  call void @_ZN6Atomic5storeIP13nmethodBucketS2_EEvPVT_T0_(ptr noundef %6, ptr noundef %7)
  ret void
}

; Function Attrs: mustprogress nounwind uwtable
define linkonce_odr hidden noundef ptr @_ZN6Atomic4loadIP13nmethodBucketEET_PVKS3_(ptr noundef %0) #1 comdat align 2 {
  %2 = alloca ptr, align 8
  %3 = alloca %"struct.Atomic::LoadImpl.8", align 1
  store ptr %0, ptr %2, align 8
  %4 = load ptr, ptr %2, align 8
  %5 = call noundef ptr @_ZNK6Atomic8LoadImplIP13nmethodBucketNS_12PlatformLoadILm8EEEvEclEPVKS2_(ptr noundef nonnull align 1 dereferenceable(1) %3, ptr noundef %4)
  ret ptr %5
}

; Function Attrs: mustprogress nounwind uwtable
define linkonce_odr hidden void @_ZN13nmethodBucketC2EP7nmethodPS_(ptr noundef nonnull align 8 dereferenceable(24) %0, ptr noundef %1, ptr noundef %2) unnamed_addr #1 comdat align 2 {
  %4 = alloca ptr, align 8
  %5 = alloca ptr, align 8
  %6 = alloca ptr, align 8
  store ptr %0, ptr %4, align 8
  store ptr %1, ptr %5, align 8
  store ptr %2, ptr %6, align 8
  %7 = load ptr, ptr %4, align 8
  %8 = getelementptr inbounds %class.nmethodBucket, ptr %7, i32 0, i32 0
  %9 = load ptr, ptr %5, align 8
  store ptr %9, ptr %8, align 8
  %10 = getelementptr inbounds %class.nmethodBucket, ptr %7, i32 0, i32 1
  %11 = load ptr, ptr %6, align 8
  store volatile ptr %11, ptr %10, align 8
  %12 = getelementptr inbounds %class.nmethodBucket, ptr %7, i32 0, i32 2
  store volatile ptr null, ptr %12, align 8
  ret void
}

; Function Attrs: mustprogress nounwind uwtable
define linkonce_odr hidden noundef ptr @_ZN13nmethodBucket11get_nmethodEv(ptr noundef nonnull align 8 dereferenceable(24) %0) #1 comdat align 2 {
  %2 = alloca ptr, align 8
  store ptr %0, ptr %2, align 8
  %3 = load ptr, ptr %2, align 8
  %4 = getelementptr inbounds %class.nmethodBucket, ptr %3, i32 0, i32 0
  %5 = load ptr, ptr %4, align 8
  ret ptr %5
}

; Function Attrs: mustprogress nounwind uwtable
define hidden void @_ZN17DependencyContext21add_dependent_nmethodEP7nmethod(ptr noundef nonnull align 8 dereferenceable(16) %0, ptr noundef %1) #1 align 2 {
  %3 = alloca i64, align 8
  %4 = alloca i8, align 1
  %5 = alloca i64, align 8
  %6 = alloca ptr, align 8
  %7 = alloca ptr, align 8
  %8 = alloca ptr, align 8
  %9 = alloca ptr, align 8
  %10 = alloca ptr, align 8
  store ptr %0, ptr %6, align 8
  store ptr %1, ptr %7, align 8
  %11 = load ptr, ptr %6, align 8
  %12 = call noundef ptr @_ZN17DependencyContext26dependencies_not_unloadingEv(ptr noundef nonnull align 8 dereferenceable(16) %11)
  store ptr %12, ptr %8, align 8
  br label %13

13:                                               ; preds = %23, %2
  %14 = load ptr, ptr %8, align 8
  %15 = icmp ne ptr %14, null
  br i1 %15, label %16, label %26

16:                                               ; preds = %13
  %17 = load ptr, ptr %7, align 8
  %18 = load ptr, ptr %8, align 8
  %19 = call noundef ptr @_ZN13nmethodBucket11get_nmethodEv(ptr noundef nonnull align 8 dereferenceable(24) %18)
  %20 = icmp eq ptr %17, %19
  br i1 %20, label %21, label %22

21:                                               ; preds = %16
  br label %52

22:                                               ; preds = %16
  br label %23

23:                                               ; preds = %22
  %24 = load ptr, ptr %8, align 8
  %25 = call noundef ptr @_ZN13nmethodBucket18next_not_unloadingEv(ptr noundef nonnull align 8 dereferenceable(24) %24)
  store ptr %25, ptr %8, align 8
  br label %13, !llvm.loop !10

26:                                               ; preds = %13
  store i64 24, ptr %5, align 8
  %27 = load i64, ptr %5, align 8
  store i64 %27, ptr %3, align 8
  store i8 1, ptr %4, align 1
  %28 = load i64, ptr %3, align 8
  %29 = load i8, ptr %4, align 1
  %30 = call noundef ptr @_Z12AllocateHeapm8MEMFLAGSN17AllocFailStrategy13AllocFailEnumE(i64 noundef %28, i8 noundef zeroext %29, i32 noundef 0) #7
  %31 = load ptr, ptr %7, align 8
  call void @_ZN13nmethodBucketC2EP7nmethodPS_(ptr noundef nonnull align 8 dereferenceable(24) %30, ptr noundef %31, ptr noundef null)
  store ptr %30, ptr %9, align 8
  br label %32

32:                                               ; preds = %46, %26
  %33 = getelementptr inbounds %class.DependencyContext, ptr %11, i32 0, i32 0
  %34 = load ptr, ptr %33, align 8
  %35 = call noundef ptr @_ZN6Atomic4loadIP13nmethodBucketEET_PVKS3_(ptr noundef %34)
  store ptr %35, ptr %10, align 8
  %36 = load ptr, ptr %9, align 8
  %37 = load ptr, ptr %10, align 8
  call void @_ZN13nmethodBucket8set_nextEPS_(ptr noundef nonnull align 8 dereferenceable(24) %36, ptr noundef %37)
  %38 = getelementptr inbounds %class.DependencyContext, ptr %11, i32 0, i32 0
  %39 = load ptr, ptr %38, align 8
  %40 = load ptr, ptr %10, align 8
  %41 = load ptr, ptr %9, align 8
  %42 = call noundef ptr @_ZN6Atomic7cmpxchgIP13nmethodBucketS2_S2_EET_PVS3_T0_T1_19atomic_memory_order(ptr noundef %39, ptr noundef %40, ptr noundef %41, i32 noundef 8)
  %43 = load ptr, ptr %10, align 8
  %44 = icmp eq ptr %42, %43
  br i1 %44, label %45, label %46

45:                                               ; preds = %32
  br label %47

46:                                               ; preds = %32
  br label %32, !llvm.loop !11

47:                                               ; preds = %45
  %48 = load i8, ptr @UsePerfData, align 1
  %49 = trunc i8 %48 to i1
  br i1 %49, label %50, label %52

50:                                               ; preds = %47
  %51 = load ptr, ptr @_ZN17DependencyContext35_perf_total_buckets_allocated_countE, align 8
  call void @_ZN15PerfLongVariant3incEv(ptr noundef nonnull align 8 dereferenceable(56) %51)
  br label %52

52:                                               ; preds = %50, %47, %21
  ret void
}