; Function Attrs: mustprogress nounwind uwtable
define hidden void @_ZN17DependencyContext21add_dependent_nmethodEP7nmethod(ptr nocapture noundef nonnull readonly align 8 dereferenceable(16) %0, ptr noundef %1) local_unnamed_addr #0 align 2 {
  %3 = tail call noundef ptr @_ZN17DependencyContext26dependencies_not_unloadingEv(ptr noundef nonnull align 8 dereferenceable(16) %0)
  %.not13 = icmp eq ptr %3, null
  br i1 %.not13, label %._crit_edge, label %.lr.ph

.lr.ph:                                           ; preds = %2, %6
  %.014 = phi ptr [ %7, %6 ], [ %3, %2 ]
  %4 = load ptr, ptr %.014, align 8
  %5 = icmp eq ptr %4, %1
  br i1 %5, label %.loopexit, label %6

6:                                                ; preds = %.lr.ph
  %7 = tail call noundef ptr @_ZN13nmethodBucket18next_not_unloadingEv(ptr noundef nonnull align 8 dereferenceable(24) %.014)
  %.not = icmp eq ptr %7, null
  br i1 %.not, label %._crit_edge, label %.lr.ph, !llvm.loop !13

._crit_edge:                                      ; preds = %6, %2
  %8 = tail call noundef ptr @_Z12AllocateHeapm8MEMFLAGSN17AllocFailStrategy13AllocFailEnumE(i64 noundef 24, i8 noundef zeroext 1, i32 noundef 0) #12
  store ptr %1, ptr %8, align 8
  %9 = getelementptr inbounds i8, ptr %8, i64 8
  store volatile ptr null, ptr %9, align 8
  %10 = getelementptr inbounds i8, ptr %8, i64 16
  store volatile ptr null, ptr %10, align 8
  br label %11

11:                                               ; preds = %11, %._crit_edge
  %12 = load ptr, ptr %0, align 8
  %13 = load volatile ptr, ptr %12, align 8
  store volatile ptr %13, ptr %9, align 8
  %14 = load ptr, ptr %0, align 8
  %15 = tail call noundef ptr asm sideeffect "lock cmpxchgq $1,($3)", "={ax},r,{ax},r,~{cc},~{memory},~{dirflag},~{fpsr},~{flags}"(ptr nonnull %8, ptr %13, ptr %14) #12, !srcloc !9
  %16 = icmp eq ptr %15, %13
  br i1 %16, label %17, label %11, !llvm.loop !14

17:                                               ; preds = %11
  %18 = load i8, ptr @UsePerfData, align 1
  %19 = trunc i8 %18 to i1
  br i1 %19, label %20, label %.loopexit

20:                                               ; preds = %17
  %21 = load ptr, ptr @_ZN17DependencyContext35_perf_total_buckets_allocated_countE, align 8
  %22 = getelementptr inbounds i8, ptr %21, i64 40
  %23 = load ptr, ptr %22, align 8
  %24 = load i64, ptr %23, align 8
  %25 = add nsw i64 %24, 1
  store i64 %25, ptr %23, align 8
  br label %.loopexit

.loopexit:                                        ; preds = %.lr.ph, %20, %17
  ret void
}